; Function Attrs: nounwind uwtable
define ptr @l_Array_mapMUnsafe_map___at___private_Lean_Elab_PreDefinition_WF_Fix_0__Lean_Elab_WF_replaceRecApps_processApp___spec__1___boxed(ptr noundef %0, ptr noundef %1, ptr noundef %2, ptr noundef %3, ptr noundef %4, ptr noundef %5, ptr noundef %6, ptr noundef %7, ptr noundef %8, ptr noundef %9, ptr noundef %10, ptr noundef %11, ptr noundef %12, ptr noundef %13) local_unnamed_addr #1 {
  %15 = getelementptr i8, ptr %3, i64 8
  %.val21 = load i64, ptr %15, align 8, !tbaa !4
  %16 = ptrtoint ptr %3 to i64
  %17 = and i64 %16, 1
  %.not = icmp eq i64 %17, 0
  br i1 %.not, label %18, label %lean_dec.exit18

18:                                               ; preds = %14
  %19 = load i32, ptr %3, align 4, !tbaa !8
  %20 = icmp sgt i32 %19, 1
  br i1 %20, label %21, label %23, !prof !11

21:                                               ; preds = %18
  %22 = add nsw i32 %19, -1
  store i32 %22, ptr %3, align 4, !tbaa !8
  br label %lean_dec.exit18

23:                                               ; preds = %18
  %.not.i = icmp eq i32 %19, 0
  br i1 %.not.i, label %lean_dec.exit18, label %24

24:                                               ; preds = %23
  tail call void @lean_dec_ref_cold(ptr noundef nonnull %3) #5
  br label %lean_dec.exit18

lean_dec.exit18:                                  ; preds = %24, %23, %21, %14
  %25 = getelementptr i8, ptr %4, i64 8
  %.val = load i64, ptr %25, align 8, !tbaa !4
  %26 = ptrtoint ptr %4 to i64
  %27 = and i64 %26, 1
  %.not22 = icmp eq i64 %27, 0
  br i1 %.not22, label %28, label %lean_dec.exit

28:                                               ; preds = %lean_dec.exit18
  %29 = load i32, ptr %4, align 4, !tbaa !8
  %30 = icmp sgt i32 %29, 1
  br i1 %30, label %31, label %33, !prof !11

31:                                               ; preds = %28
  %32 = add nsw i32 %29, -1
  store i32 %32, ptr %4, align 4, !tbaa !8
  br label %lean_dec.exit

33:                                               ; preds = %28
  %.not.i19 = icmp eq i32 %29, 0
  br i1 %.not.i19, label %lean_dec.exit, label %34

34:                                               ; preds = %33
  tail call void @lean_dec_ref_cold(ptr noundef nonnull %4) #5
  br label %lean_dec.exit

lean_dec.exit:                                    ; preds = %34, %33, %31, %lean_dec.exit18
  %35 = tail call ptr @l_Array_mapMUnsafe_map___at___private_Lean_Elab_PreDefinition_WF_Fix_0__Lean_Elab_WF_replaceRecApps_processApp___spec__1(ptr noundef %0, ptr noundef %1, ptr noundef %2, i64 noundef %.val21, i64 noundef %.val, ptr noundef %5, ptr noundef %6, ptr noundef %7, ptr noundef %8, ptr noundef %9, ptr noundef %10, ptr noundef %11, ptr noundef %12, ptr noundef %13)
  ret ptr %35
}